target datalayout = "e-m:e-p270:32:32-p271:32:32-p272:64:64-i64:64-i128:128-f80:128-n8:16:32:64-S128"
target triple = "x86_64-unknown-linux-gnu"

@.str.5 = private unnamed_addr constant [17 x i8] c"unnamed-gpio-out\00", align 1
@.str.8 = private unnamed_addr constant [7 x i8] c"%s[%d]\00", align 1

; Function Attrs: nounwind sspstrong uwtable
define internal void @g_autoptr_cleanup_generic_gfree(ptr noundef %p) #0 {
entry:
  %p.addr = alloca ptr, align 8
  %pp = alloca ptr, align 8
  store ptr %p, ptr %p.addr, align 8
  %0 = load ptr, ptr %p.addr, align 8
  store ptr %0, ptr %pp, align 8
  %1 = load ptr, ptr %pp, align 8
  %2 = load ptr, ptr %1, align 8
  call void @g_free(ptr noundef %2)
  ret void
}

; Function Attrs: nounwind sspstrong uwtable
define dso_local ptr @qdev_get_gpio_out_connector(ptr noundef %dev, ptr noundef %name, i32 noundef %n) #0 {
entry:
  %dev.addr = alloca ptr, align 8
  %name.addr = alloca ptr, align 8
  %n.addr = alloca i32, align 4
  %propname = alloca ptr, align 8
  %ret = alloca ptr, align 8
  store ptr %dev, ptr %dev.addr, align 8
  store ptr %name, ptr %name.addr, align 8
  store i32 %n, ptr %n.addr, align 4
  %0 = load ptr, ptr %name.addr, align 8
  %tobool = icmp ne ptr %0, null
  br i1 %tobool, label %cond.true, label %cond.false

cond.true:                                        ; preds = %entry
  %1 = load ptr, ptr %name.addr, align 8
  br label %cond.end

cond.false:                                       ; preds = %entry
  br label %cond.end

cond.end:                                         ; preds = %cond.false, %cond.true
  %cond = phi ptr [ %1, %cond.true ], [ @.str.5, %cond.false ]
  %2 = load i32, ptr %n.addr, align 4
  %call = call noalias ptr (ptr, ...) @g_strdup_printf(ptr noundef @.str.8, ptr noundef %cond, i32 noundef %2)
  store ptr %call, ptr %propname, align 8
  %3 = load ptr, ptr %dev.addr, align 8
  %4 = load ptr, ptr %propname, align 8
  %call1 = call ptr @object_property_get_link(ptr noundef %3, ptr noundef %4, ptr noundef null)
  store ptr %call1, ptr %ret, align 8
  %5 = load ptr, ptr %ret, align 8
  call void @g_autoptr_cleanup_generic_gfree(ptr noundef %propname)
  ret ptr %5
}