; Function Attrs: nounwind sspstrong uwtable
define dso_local ptr @qdev_get_gpio_out_connector(ptr noundef %dev, ptr noundef %name, i32 noundef %n) local_unnamed_addr #0 {
entry:
  %tobool.not = icmp eq ptr %name, null
  %cond = select i1 %tobool.not, ptr @.str.5, ptr %name
  %call = tail call noalias ptr (ptr, ...) @g_strdup_printf(ptr noundef nonnull @.str.8, ptr noundef nonnull %cond, i32 noundef %n) #5
  %call1 = tail call ptr @object_property_get_link(ptr noundef %dev, ptr noundef %call, ptr noundef null) #5
  tail call void @g_free(ptr noundef %call) #5
  ret ptr %call1
}